target datalayout = "e-m:e-p270:32:32-p271:32:32-p272:64:64-i64:64-i128:128-f80:128-n8:16:32:64-S128"
target triple = "x86_64-pc-linux-gnu"

%"class.gmx::SelectionTreeElement" = type { i32, %struct.gmx_ana_selvalue_t, ptr, i32, %union.anon.0, ptr, ptr, %"class.std::shared_ptr", %"class.std::shared_ptr", %"class.std::__cxx11::basic_string", %"struct.gmx::SelectionLocation" }
%struct.gmx_ana_selvalue_t = type { i32, i32, %union.anon, i32 }
%union.anon = type { ptr }
%union.anon.0 = type { %struct.anon }
%struct.anon = type { ptr, ptr, ptr, ptr }
%"class.std::shared_ptr" = type { %"class.std::__shared_ptr" }
%"class.std::__shared_ptr" = type { ptr, %"class.std::__shared_count" }
%"class.std::__shared_count" = type { ptr }
%"class.std::__cxx11::basic_string" = type { %"struct.std::__cxx11::basic_string<char>::_Alloc_hider", i64, %union.anon.2 }
%"struct.std::__cxx11::basic_string<char>::_Alloc_hider" = type { ptr }
%union.anon.2 = type { i64, [8 x i8] }
%"struct.gmx::SelectionLocation" = type { i32, i32 }

@.str.15 = private unnamed_addr constant [4 x i8] c"NOT\00", align 1
@.str.16 = private unnamed_addr constant [4 x i8] c"AND\00", align 1
@.str.17 = private unnamed_addr constant [3 x i8] c"OR\00", align 1
@.str.18 = private unnamed_addr constant [4 x i8] c"XOR\00", align 1

; Function Attrs: mustprogress nounwind uwtable
define noundef ptr @_Z29_gmx_selelem_boolean_type_strRKN3gmx20SelectionTreeElementE(ptr noundef nonnull align 8 dereferenceable(168) %0) #0 {
  %2 = alloca ptr, align 8
  %3 = alloca ptr, align 8
  store ptr %0, ptr %2, align 8
  store ptr null, ptr %3, align 8
  %4 = load ptr, ptr %2, align 8
  %5 = getelementptr inbounds %"class.gmx::SelectionTreeElement", ptr %4, i32 0, i32 4
  %6 = load i32, ptr %5, align 8
  switch i32 %6, label %11 [
    i32 0, label %7
    i32 1, label %8
    i32 2, label %9
    i32 3, label %10
  ]

7:                                                ; preds = %1
  store ptr @.str.15, ptr %3, align 8
  br label %11

8:                                                ; preds = %1
  store ptr @.str.16, ptr %3, align 8
  br label %11

9:                                                ; preds = %1
  store ptr @.str.17, ptr %3, align 8
  br label %11

10:                                               ; preds = %1
  store ptr @.str.18, ptr %3, align 8
  br label %11

11:                                               ; preds = %10, %9, %8, %7, %1
  %12 = load ptr, ptr %3, align 8
  ret ptr %12
}