; Function Attrs: mustprogress nofree norecurse nosync nounwind willreturn memory(argmem: read) uwtable
define noundef ptr @_Z29_gmx_selelem_boolean_type_strRKN3gmx20SelectionTreeElementE(ptr nocapture noundef nonnull readonly align 8 dereferenceable(168) %0) local_unnamed_addr #0 {
  %2 = getelementptr inbounds i8, ptr %0, i64 48
  %3 = load i32, ptr %2, align 8
  %4 = icmp ult i32 %3, 4
  br i1 %4, label %switch.lookup, label %6

switch.lookup:                                    ; preds = %1
  %5 = zext nneg i32 %3 to i64
  %switch.gep = getelementptr inbounds [4 x ptr], ptr @switch.table._Z23_gmx_selelem_print_treeP8_IO_FILERKN3gmx20SelectionTreeElementEbi.12, i64 0, i64 %5
  %switch.load = load ptr, ptr %switch.gep, align 8
  br label %6

6:                                                ; preds = %switch.lookup, %1
  %.0 = phi ptr [ null, %1 ], [ %switch.load, %switch.lookup ]
  ret ptr %.0
}